; Function Attrs: mustprogress nofree norecurse nosync nounwind willreturn memory(argmem: read) uwtable
define { i64, i64 } @_ZN5arrowplERKNS_15BasicDecimal128ES2_(ptr noundef nonnull readonly align 8 captures(none) dereferenceable(16) %0, ptr noundef nonnull readonly align 8 captures(none) dereferenceable(16) %1) local_unnamed_addr #7 {
  %3 = getelementptr inbounds nuw i8, ptr %0, i64 8
  %4 = load i64, ptr %3, align 8, !tbaa !7
  %5 = load i64, ptr %0, align 8, !tbaa !7
  %6 = getelementptr inbounds nuw i8, ptr %1, i64 8
  %7 = load i64, ptr %6, align 8, !tbaa !7
  %8 = add i64 %7, %4
  %9 = load i64, ptr %1, align 8, !tbaa !7
  %10 = add i64 %9, %5
  %11 = icmp ult i64 %10, %5
  %12 = zext i1 %11 to i64
  %13 = add i64 %8, %12
  %.fca.0.insert = insertvalue { i64, i64 } poison, i64 %10, 0
  %.fca.1.insert = insertvalue { i64, i64 } %.fca.0.insert, i64 %13, 1
  ret { i64, i64 } %.fca.1.insert
}